; Function Attrs: mustprogress uwtable
define void @_ZN5folly14EventBaseEvent10eb_ev_baseEPNS_9EventBaseE(ptr noundef nonnull writeonly align 8 captures(none) dereferenceable(168) initializes((64, 72), (128, 136)) %0, ptr noundef %1) local_unnamed_addr #0 align 2 {
  %3 = getelementptr inbounds nuw i8, ptr %0, i64 128
  store ptr %1, ptr %3, align 8, !tbaa !7
  %.not = icmp eq ptr %1, null
  br i1 %.not, label %6, label %4

4:                                                ; preds = %2
  %5 = tail call noundef ptr @_ZNK5folly9EventBase15getLibeventBaseEv(ptr noundef nonnull align 16 dereferenceable(632) %1)
  br label %6

6:                                                ; preds = %2, %4
  %7 = phi ptr [ %5, %4 ], [ null, %2 ]
  %8 = getelementptr inbounds nuw i8, ptr %0, i64 64
  store ptr %7, ptr %8, align 8, !tbaa !25
  ret void
}